; Function Attrs: null_pointer_is_valid sspstrong uwtable
define internal i32 @dissect_nbap_MIB_SB_SIB_InformationItem_SystemInfoUpdateRqst(ptr noundef %0, i32 noundef %1, ptr noundef %2, ptr noundef %3, i32 noundef %4) #0 {
  %6 = getelementptr inbounds nuw i8, ptr %2, i64 16
  %7 = load ptr, ptr %6, align 8
  %8 = getelementptr inbounds nuw i8, ptr %7, i64 408
  %9 = load ptr, ptr %8, align 8
  %10 = load i32, ptr @proto_nbap, align 4
  %11 = tail call ptr @p_get_proto_data(ptr noundef %9, ptr noundef %7, i32 noundef %10, i32 noundef 0)
  %12 = icmp eq ptr %11, null
  br i1 %12, label %13, label %nbap_get_private_data.exit

13:                                               ; preds = %5
  %14 = load ptr, ptr %8, align 8
  %15 = tail call noalias dereferenceable_or_null(268056) ptr @wmem_alloc0(ptr noundef %14, i64 noundef 268056) #10
  %16 = load ptr, ptr %8, align 8
  %17 = load i32, ptr @proto_nbap, align 4
  tail call void @p_add_proto_data(ptr noundef %16, ptr noundef %7, i32 noundef %17, i32 noundef 0, ptr noundef %15)
  %18 = getelementptr inbounds nuw i8, ptr %15, i64 68
  store i32 3, ptr %18, align 4
  %19 = getelementptr inbounds nuw i8, ptr %15, i64 108
  store i8 0, ptr %19, align 4
  %20 = getelementptr inbounds nuw i8, ptr %15, i64 12
  store i32 65535, ptr %20, align 4
  %21 = getelementptr inbounds nuw i8, ptr %15, i64 40
  store i32 65535, ptr %21, align 8
  %22 = getelementptr inbounds nuw i8, ptr %15, i64 109
  store i8 2, ptr %22, align 1
  %23 = getelementptr i8, ptr %15, i64 267508
  br label %24

24:                                               ; preds = %24, %13
  %indvars.iv.i = phi i64 [ 0, %13 ], [ %indvars.iv.next.i, %24 ]
  %.idx.i = mul nuw nsw i64 %indvars.iv.i, 40
  %25 = getelementptr i8, ptr %23, i64 %.idx.i
  store i8 1, ptr %25, align 4
  %indvars.iv.next.i = add nuw nsw i64 %indvars.iv.i, 1
  %exitcond.not.i = icmp eq i64 %indvars.iv.next.i, 8
  br i1 %exitcond.not.i, label %nbap_get_private_data.exit, label %24, !llvm.loop !9

nbap_get_private_data.exit:                       ; preds = %24, %5
  %.0.i = phi ptr [ %11, %5 ], [ %15, %24 ]
  %26 = getelementptr inbounds nuw i8, ptr %.0.i, i64 100
  store i32 10, ptr %26, align 4
  %27 = load ptr, ptr %6, align 8
  %28 = getelementptr inbounds nuw i8, ptr %27, i64 408
  %29 = load ptr, ptr %28, align 8
  %30 = load i32, ptr @proto_nbap, align 4
  %31 = tail call ptr @p_get_proto_data(ptr noundef %29, ptr noundef %27, i32 noundef %30, i32 noundef 0)
  %32 = icmp eq ptr %31, null
  br i1 %32, label %33, label %nbap_get_private_data.exit12

33:                                               ; preds = %nbap_get_private_data.exit
  %34 = load ptr, ptr %28, align 8
  %35 = tail call noalias dereferenceable_or_null(268056) ptr @wmem_alloc0(ptr noundef %34, i64 noundef 268056) #10
  %36 = load ptr, ptr %28, align 8
  %37 = load i32, ptr @proto_nbap, align 4
  tail call void @p_add_proto_data(ptr noundef %36, ptr noundef %27, i32 noundef %37, i32 noundef 0, ptr noundef %35)
  %38 = getelementptr inbounds nuw i8, ptr %35, i64 68
  store i32 3, ptr %38, align 4
  %39 = getelementptr inbounds nuw i8, ptr %35, i64 108
  store i8 0, ptr %39, align 4
  %40 = getelementptr inbounds nuw i8, ptr %35, i64 12
  store i32 65535, ptr %40, align 4
  %41 = getelementptr inbounds nuw i8, ptr %35, i64 40
  store i32 65535, ptr %41, align 8
  %42 = getelementptr inbounds nuw i8, ptr %35, i64 109
  store i8 2, ptr %42, align 1
  %43 = getelementptr i8, ptr %35, i64 267508
  br label %44

44:                                               ; preds = %44, %33
  %indvars.iv.i8 = phi i64 [ 0, %33 ], [ %indvars.iv.next.i10, %44 ]
  %.idx.i9 = mul nuw nsw i64 %indvars.iv.i8, 40
  %45 = getelementptr i8, ptr %43, i64 %.idx.i9
  store i8 1, ptr %45, align 4
  %indvars.iv.next.i10 = add nuw nsw i64 %indvars.iv.i8, 1
  %exitcond.not.i11 = icmp eq i64 %indvars.iv.next.i10, 8
  br i1 %exitcond.not.i11, label %nbap_get_private_data.exit12, label %44, !llvm.loop !9

nbap_get_private_data.exit12:                     ; preds = %44, %nbap_get_private_data.exit
  %.0.i7 = phi ptr [ %31, %nbap_get_private_data.exit ], [ %35, %44 ]
  %46 = getelementptr inbounds nuw i8, ptr %.0.i7, i64 104
  store i32 0, ptr %46, align 8
  %47 = load i32, ptr @ett_nbap_MIB_SB_SIB_InformationItem_SystemInfoUpdateRqst, align 4
  %48 = tail call i32 @dissect_per_sequence(ptr noundef %0, i32 noundef %1, ptr noundef %2, ptr noundef %3, i32 noundef %4, i32 noundef %47, ptr noundef nonnull @MIB_SB_SIB_InformationItem_SystemInfoUpdateRqst_sequence)
  ret i32 %48
}